; Function Attrs: mustprogress nofree nounwind uwtable
define void @_ZN3gmx18AbstractPlotModule12frameStartedERKNS_23AnalysisDataFrameHeaderE(ptr noundef nonnull readonly align 8 captures(none) dereferenceable(16) %0, ptr noundef nonnull readonly align 4 captures(none) dereferenceable(12) %1) unnamed_addr #4 align 2 {
  %3 = getelementptr inbounds nuw i8, ptr %0, i64 8
  %4 = load ptr, ptr %3, align 8, !tbaa !4
  %5 = getelementptr inbounds nuw i8, ptr %4, i64 48
  %6 = load ptr, ptr %5, align 8, !tbaa !32
  %.not = icmp eq ptr %6, null
  br i1 %.not, label %21, label %7

7:                                                ; preds = %2
  %8 = getelementptr inbounds nuw i8, ptr %4, i64 57
  %9 = load i8, ptr %8, align 1, !tbaa !42, !range !28, !noundef !29
  %10 = trunc nuw i8 %9 to i1
  br i1 %10, label %21, label %11

11:                                               ; preds = %7
  %12 = getelementptr inbounds nuw i8, ptr %4, i64 216
  %13 = load ptr, ptr %12, align 8, !tbaa !30
  %14 = getelementptr inbounds nuw i8, ptr %1, i64 4
  %15 = load float, ptr %14, align 4, !tbaa !43
  %16 = getelementptr inbounds nuw i8, ptr %4, i64 280
  %17 = load float, ptr %16, align 8, !tbaa !46
  %18 = fmul float %15, %17
  %19 = fpext float %18 to double
  %20 = tail call i32 (ptr, ptr, ...) @fprintf(ptr noundef nonnull %6, ptr noundef %13, double noundef %19) #35
  br label %21

21:                                               ; preds = %2, %11, %7
  ret void
}